target datalayout = "e-m:e-p270:32:32-p271:32:32-p272:64:64-i64:64-i128:128-f80:128-n8:16:32:64-S128"
target triple = "x86_64-pc-linux-gnu"

%class.StubCodeMark = type { ptr, ptr }
%class.StubCodeGenerator = type { ptr, i8, ptr }
%class.CodeSection = type { ptr, ptr, ptr, ptr, ptr, ptr, ptr, ptr, i8, i8, i32, i8, ptr }
%class.AbstractAssembler = type { ptr, ptr, ptr }

@.str = private unnamed_addr constant [13 x i8] c"StubRoutines\00", align 1
@.str.37 = private unnamed_addr constant [16 x i8] c"join_2_3_base64\00", align 1

; Function Attrs: mustprogress nounwind uwtable
define linkonce_odr hidden noundef ptr @_ZNK11CodeSection3endEv(ptr noundef nonnull align 8 dereferenceable(88) %0) #1 comdat align 2 {
  %2 = alloca ptr, align 8
  store ptr %0, ptr %2, align 8
  %3 = load ptr, ptr %2, align 8
  %4 = getelementptr inbounds %class.CodeSection, ptr %3, i32 0, i32 2
  %5 = load ptr, ptr %4, align 8
  ret ptr %5
}

; Function Attrs: mustprogress nounwind uwtable
define linkonce_odr hidden noundef ptr @_ZNK17AbstractAssembler12code_sectionEv(ptr noundef nonnull align 8 dereferenceable(24) %0) #1 comdat align 2 {
  %2 = alloca ptr, align 8
  store ptr %0, ptr %2, align 8
  %3 = load ptr, ptr %2, align 8
  %4 = getelementptr inbounds %class.AbstractAssembler, ptr %3, i32 0, i32 1
  %5 = load ptr, ptr %4, align 8
  ret ptr %5
}

; Function Attrs: mustprogress nounwind uwtable
define linkonce_odr hidden noundef ptr @_ZNK17AbstractAssembler2pcEv(ptr noundef nonnull align 8 dereferenceable(24) %0) #1 comdat align 2 {
  %2 = alloca ptr, align 8
  store ptr %0, ptr %2, align 8
  %3 = load ptr, ptr %2, align 8
  %4 = call noundef ptr @_ZNK17AbstractAssembler12code_sectionEv(ptr noundef nonnull align 8 dereferenceable(24) %3)
  %5 = call noundef ptr @_ZNK11CodeSection3endEv(ptr noundef nonnull align 8 dereferenceable(88) %4)
  ret ptr %5
}

; Function Attrs: mustprogress nounwind uwtable
define hidden noundef ptr @_ZN13StubGenerator25base64_vbmi_join_2_3_addrEv(ptr noundef nonnull align 8 dereferenceable(24) %0) #1 align 2 {
  %2 = alloca ptr, align 8
  %3 = alloca %class.StubCodeMark, align 8
  %4 = alloca ptr, align 8
  store ptr %0, ptr %2, align 8
  %5 = load ptr, ptr %2, align 8
  %6 = getelementptr inbounds %class.StubCodeGenerator, ptr %5, i32 0, i32 2
  %7 = load ptr, ptr %6, align 8
  call void @_ZN14MacroAssembler7align64Ev(ptr noundef nonnull align 8 dereferenceable(40) %7)
  call void @_ZN12StubCodeMarkC1EP17StubCodeGeneratorPKcS3_(ptr noundef nonnull align 8 dereferenceable(16) %3, ptr noundef %5, ptr noundef @.str, ptr noundef @.str.37)
  %8 = getelementptr inbounds %class.StubCodeGenerator, ptr %5, i32 0, i32 2
  %9 = load ptr, ptr %8, align 8
  %10 = call noundef ptr @_ZNK17AbstractAssembler2pcEv(ptr noundef nonnull align 8 dereferenceable(24) %9)
  store ptr %10, ptr %4, align 8
  %11 = getelementptr inbounds %class.StubCodeGenerator, ptr %5, i32 0, i32 2
  %12 = load ptr, ptr %11, align 8
  call void @_ZN9Assembler11emit_data64ElN9relocInfo9relocTypeEi(ptr noundef nonnull align 8 dereferenceable(40) %12, i64 noundef 3904674968489504296, i32 noundef 0, i32 noundef 0)
  %13 = getelementptr inbounds %class.StubCodeGenerator, ptr %5, i32 0, i32 2
  %14 = load ptr, ptr %13, align 8
  call void @_ZN9Assembler11emit_data64ElN9relocInfo9relocTypeEi(ptr noundef nonnull align 8 dereferenceable(40) %14, i64 noundef 4340694027054232629, i32 noundef 0, i32 noundef 0)
  %15 = getelementptr inbounds %class.StubCodeGenerator, ptr %5, i32 0, i32 2
  %16 = load ptr, ptr %15, align 8
  call void @_ZN9Assembler11emit_data64ElN9relocInfo9relocTypeEi(ptr noundef nonnull align 8 dereferenceable(40) %16, i64 noundef 5281108577367376194, i32 noundef 0, i32 noundef 0)
  %17 = getelementptr inbounds %class.StubCodeGenerator, ptr %5, i32 0, i32 2
  %18 = load ptr, ptr %17, align 8
  call void @_ZN9Assembler11emit_data64ElN9relocInfo9relocTypeEi(ptr noundef nonnull align 8 dereferenceable(40) %18, i64 noundef 6219560499307957832, i32 noundef 0, i32 noundef 0)
  %19 = getelementptr inbounds %class.StubCodeGenerator, ptr %5, i32 0, i32 2
  %20 = load ptr, ptr %19, align 8
  call void @_ZN9Assembler11emit_data64ElN9relocInfo9relocTypeEi(ptr noundef nonnull align 8 dereferenceable(40) %20, i64 noundef 6655579557872686165, i32 noundef 0, i32 noundef 0)
  %21 = getelementptr inbounds %class.StubCodeGenerator, ptr %5, i32 0, i32 2
  %22 = load ptr, ptr %21, align 8
  call void @_ZN9Assembler11emit_data64ElN9relocInfo9relocTypeEi(ptr noundef nonnull align 8 dereferenceable(40) %22, i64 noundef 7595994108185829730, i32 noundef 0, i32 noundef 0)
  %23 = getelementptr inbounds %class.StubCodeGenerator, ptr %5, i32 0, i32 2
  %24 = load ptr, ptr %23, align 8
  call void @_ZN9Assembler11emit_data64ElN9relocInfo9relocTypeEi(ptr noundef nonnull align 8 dereferenceable(40) %24, i64 noundef 8534446030126411368, i32 noundef 0, i32 noundef 0)
  %25 = getelementptr inbounds %class.StubCodeGenerator, ptr %5, i32 0, i32 2
  %26 = load ptr, ptr %25, align 8
  call void @_ZN9Assembler11emit_data64ElN9relocInfo9relocTypeEi(ptr noundef nonnull align 8 dereferenceable(40) %26, i64 noundef 8970465088691139701, i32 noundef 0, i32 noundef 0)
  %27 = load ptr, ptr %4, align 8
  call void @_ZN12StubCodeMarkD1Ev(ptr noundef nonnull align 8 dereferenceable(16) %3) #7
  ret ptr %27
}